(dp0
S'bam_filter'
p1
I01
sS'read_len'
p2
I100
sS'read_ins_mean'
p3
I1000
sS'read_ins_stddev'
p4
I50
sS'motif'
p5
S'GCA'
p6
sS'num_reads'
p7
(lp8
I100
aI1000
aI10000
asS'exp_name'
p9
S'ATXN7_10_prof'
p10
sS'ref_gen_dir'
p11
S'/storage/resources/dbase/human/hs37d5/hs37d5.fa'
p12
sS'num_copy'
p13
(lp14
I3
aI8
aI16
aI40
asS'locus'
p15
S'ATXN7'
p16
sS'repo_dir'
p17
S'/storage/nmmsv/str-expansions/'
p18
sS'base_error'
p19
F0.0
sS'num_threads'
p20
I4
sS'ref_allele_count'
p21
I10
sS'flank_len'
p22
I1000
s.