(dp0
S'bam_filter'
p1
I01
sS'read_len'
p2
I100
sS'read_ins_mean'
p3
I1000
sS'read_ins_stddev'
p4
I50
sS'motif'
p5
S'GCA'
p6
sS'num_reads'
p7
(lp8
I150
aI360
aI600
aI900
aI1350
aI1800
aI2400
aI3000
asS'exp_name'
p9
S'ATXN7_12_old_heatMap_d1000'
p10
sS'ref_gen_dir'
p11
S'/storage/resources/dbase/human/hs37d5/hs37d5.fa'
p12
sS'num_copy'
p13
(lp14
I3
aI7
aI10
aI16
aI20
aI30
aI40
aI55
aI70
aI85
asS'locus'
p15
S'ATXN7'
p16
sS'repo_dir'
p17
S'/storage/nmmsv/str-expansions/'
p18
sS'base_error'
p19
F0.0
sS'num_threads'
p20
I4
sS'heat_map_limit'
p21
I1
sS'ref_allele_count'
p22
I10
sS'flank_len'
p23
I3000
s.